; Function Attrs: mustprogress nounwind uwtable
define dso_local void @_ZN5clang13ObjCAtTryStmtC2ENS_14SourceLocationEPNS_4StmtEPS3_jS3_(ptr nocapture noundef nonnull align 8 dereferenceable(16) %0, i32 %1, ptr noundef %2, ptr nocapture noundef readonly %3, i32 noundef %4, ptr noundef %5) unnamed_addr #0 align 2 {
  store i8 -113, ptr %0, align 8
  %7 = load i8, ptr @_ZN5clang4Stmt17StatisticsEnabledE, align 1
  %8 = trunc i8 %7 to i1
  br i1 %8, label %9, label %_ZN5clang4StmtC2ENS0_9StmtClassE.exit

9:                                                ; preds = %6
  tail call void @_ZN5clang4Stmt12addStmtClassENS0_9StmtClassE(i32 noundef 143) #5
  br label %_ZN5clang4StmtC2ENS0_9StmtClassE.exit

_ZN5clang4StmtC2ENS0_9StmtClassE.exit:            ; preds = %6, %9
  %10 = getelementptr inbounds nuw i8, ptr %0, i64 8
  store i32 %1, ptr %10, align 8
  %11 = getelementptr inbounds nuw i8, ptr %0, i64 12
  %12 = trunc i32 %4 to i16
  store i16 %12, ptr %11, align 4
  %13 = getelementptr inbounds nuw i8, ptr %0, i64 14
  %14 = icmp ne ptr %5, null
  %15 = zext i1 %14 to i8
  %16 = load i8, ptr %13, align 2
  %17 = and i8 %16, -2
  %18 = or disjoint i8 %17, %15
  store i8 %18, ptr %13, align 2
  %19 = getelementptr inbounds i8, ptr %0, i64 16
  store ptr %2, ptr %19, align 8
  %.not16 = icmp eq i32 %4, 0
  br i1 %.not16, label %._crit_edge, label %.lr.ph.preheader

.lr.ph.preheader:                                 ; preds = %_ZN5clang4StmtC2ENS0_9StmtClassE.exit
  %20 = zext i32 %4 to i64
  br label %.lr.ph

.lr.ph:                                           ; preds = %.lr.ph.preheader, %.lr.ph
  %indvars.iv = phi i64 [ 0, %.lr.ph.preheader ], [ %indvars.iv.next, %.lr.ph ]
  %21 = getelementptr inbounds ptr, ptr %3, i64 %indvars.iv
  %22 = load ptr, ptr %21, align 8
  %indvars.iv.next = add nuw nsw i64 %indvars.iv, 1
  %23 = getelementptr inbounds ptr, ptr %19, i64 %indvars.iv.next
  store ptr %22, ptr %23, align 8
  %.not = icmp eq i64 %indvars.iv.next, %20
  br i1 %.not, label %._crit_edge, label %.lr.ph, !llvm.loop !4

._crit_edge:                                      ; preds = %.lr.ph, %_ZN5clang4StmtC2ENS0_9StmtClassE.exit
  br i1 %14, label %24, label %28

24:                                               ; preds = %._crit_edge
  %25 = add i32 %4, 1
  %26 = zext i32 %25 to i64
  %27 = getelementptr inbounds ptr, ptr %19, i64 %26
  store ptr %5, ptr %27, align 8
  br label %28

28:                                               ; preds = %24, %._crit_edge
  ret void
}